; Function Attrs: mustprogress nounwind uwtable
define hidden void @_ZN6hermes3sem17SemanticValidatorC2ERNS_7ContextERNS0_10SemContextEb(ptr noundef nonnull align 8 captures(none) dereferenceable(168) initializes((0, 36), (40, 162), (164, 168)) %this, ptr noundef nonnull align 8 dereferenceable(656) %astContext, ptr noundef nonnull align 8 dereferenceable(80) %semCtx, i1 noundef zeroext %compile) unnamed_addr #0 align 2 {
entry:
  %frombool = zext i1 %compile to i8
  store ptr %astContext, ptr %this, align 8
  %sm_ = getelementptr inbounds nuw i8, ptr %this, i64 8
  %sm_.i = getelementptr inbounds nuw i8, ptr %astContext, i64 160
  %0 = load ptr, ptr %sm_.i, align 8
  store ptr %0, ptr %sm_, align 8
  %bufferMessages_ = getelementptr inbounds nuw i8, ptr %this, i64 16
  store ptr %0, ptr %bufferMessages_, align 8
  tail call void @_ZN6hermes18SourceErrorManager15enableBufferingEv(ptr noundef nonnull align 8 dereferenceable(464) %0) #21
  %semCtx_ = getelementptr inbounds nuw i8, ptr %this, i64 24
  store ptr %semCtx, ptr %semCtx_, align 8
  %initialErrorCount_ = getelementptr inbounds nuw i8, ptr %this, i64 32
  %1 = load ptr, ptr %sm_, align 8
  %messageCount_.i.i = getelementptr inbounds nuw i8, ptr %1, i64 296
  %2 = load i32, ptr %messageCount_.i.i, align 4
  store i32 %2, ptr %initialErrorCount_, align 8
  %kw_ = getelementptr inbounds nuw i8, ptr %this, i64 40
  tail call void @_ZN6hermes3sem8KeywordsC2ERNS_7ContextE(ptr noundef nonnull align 8 dereferenceable(112) %kw_, ptr noundef nonnull align 8 dereferenceable(656) %astContext)
  %funcCtx_ = getelementptr inbounds nuw i8, ptr %this, i64 152
  store ptr null, ptr %funcCtx_, align 8
  %isFormalParams_ = getelementptr inbounds nuw i8, ptr %this, i64 160
  store i8 0, ptr %isFormalParams_, align 8
  %compile_ = getelementptr inbounds nuw i8, ptr %this, i64 161
  store i8 %frombool, ptr %compile_, align 1
  %recursionDepth_ = getelementptr inbounds nuw i8, ptr %this, i64 164
  store i32 1024, ptr %recursionDepth_, align 4
  ret void
}